target datalayout = "e-m:e-p270:32:32-p271:32:32-p272:64:64-i64:64-i128:128-f80:128-n8:16:32:64-S128"
target triple = "x86_64-pc-linux-gnu"

%struct._zend_stack = type { i32, i32, i32, ptr }
%struct._zend_array = type { %struct._zend_refcounted_h, %union.anon.0, i32, %union.anon.1, i32, i32, i32, i32, i64, ptr }
%struct._zend_refcounted_h = type { i32, %union.anon }
%union.anon = type { i32 }
%union.anon.0 = type { i32 }
%union.anon.1 = type { ptr }
%struct._zend_executor_globals = type { %struct._zval_struct, %struct._zval_struct, [32 x ptr], ptr, ptr, %struct._zend_array, %struct._zend_array, ptr, i32, i8, %struct._zval_struct, i32, ptr, ptr, ptr, ptr, ptr, ptr, i64, ptr, ptr, i32, ptr, i32, i64, i32, i32, i32, i8, i8, %struct.zend_atomic_bool_s, %struct.zend_atomic_bool_s, ptr, i64, ptr, ptr, %struct._zend_array, %struct._zend_array, i32, i8, %struct._zval_struct, %struct._zval_struct, %struct._zend_stack, %struct._zend_stack, %struct._zend_stack, ptr, i32, i32, i64, ptr, ptr, ptr, %struct._zend_objects_store, %struct._zend_lazy_objects_store, ptr, ptr, ptr, [3 x %struct._zend_op], ptr, i8, i8, i64, i32, i32, ptr, [16 x %struct._HashTableIterator], ptr, %union._zend_function, %struct._zend_op, %struct._zend_array, i64, %struct.zend_get_gc_buffer, ptr, ptr, ptr, i64, i8, i32, ptr, ptr, i64, %struct._zend_call_stack, i64, i64, %struct._zend_strtod_state, [6 x ptr] }
%struct.zend_atomic_bool_s = type { i8 }
%struct._zval_struct = type { %union._zend_value, %union.anon.4, %union.anon.7 }
%union._zend_value = type { i64 }
%union.anon.4 = type { i32 }
%union.anon.7 = type { i32 }
%struct._zend_objects_store = type { ptr, i32, i32, i32 }
%struct._zend_lazy_objects_store = type { %struct._zend_array }
%struct._HashTableIterator = type { ptr, i32, i32 }
%union._zend_function = type { %struct._zend_op_array }
%struct._zend_op_array = type { i8, [3 x i8], i32, ptr, ptr, ptr, i32, i32, ptr, ptr, ptr, ptr, i32, ptr, i32, i32, i32, ptr, ptr, ptr, ptr, ptr, i32, i32, ptr, ptr, ptr, i32, i32, i32, i32, ptr, ptr, [6 x ptr] }
%struct._zend_op = type { ptr, %union._znode_op, %union._znode_op, %union._znode_op, i32, i32, i8, i8, i8, i8 }
%union._znode_op = type { i32 }
%struct.zend_get_gc_buffer = type { ptr, ptr, ptr }
%struct._zend_call_stack = type { ptr, i64 }
%struct._zend_strtod_state = type { [8 x ptr], ptr, ptr }
%struct._zend_execute_data = type { ptr, ptr, ptr, ptr, %struct._zval_struct, ptr, ptr, ptr, ptr }

@php_output_default_handler_name = hidden constant [23 x i8] c"default output handler\00", align 16
@.str = private unnamed_addr constant [15 x i8] c"ref.outcontrol\00", align 1
@executor_globals = external global %struct._zend_executor_globals, align 8
@.str.7 = private unnamed_addr constant [5 x i8] c"|zll\00", align 1
@.str.8 = private unnamed_addr constant [24 x i8] c"Failed to create buffer\00", align 1

; Function Attrs: nounwind uwtable
define dso_local void @php_output_handler_free(ptr noundef %0) #0 {
  %2 = alloca ptr, align 8
  store ptr %0, ptr %2, align 8, !tbaa !27
  %3 = load ptr, ptr %2, align 8, !tbaa !27
  %4 = load ptr, ptr %3, align 8, !tbaa !55
  %5 = icmp ne ptr %4, null
  br i1 %5, label %6, label %12

6:                                                ; preds = %1
  %7 = load ptr, ptr %2, align 8, !tbaa !27
  %8 = load ptr, ptr %7, align 8, !tbaa !55
  call void @php_output_handler_dtor(ptr noundef %8)
  %9 = load ptr, ptr %2, align 8, !tbaa !27
  %10 = load ptr, ptr %9, align 8, !tbaa !55
  call void @_efree(ptr noundef %10)
  %11 = load ptr, ptr %2, align 8, !tbaa !27
  store ptr null, ptr %11, align 8, !tbaa !55
  br label %12

12:                                               ; preds = %6, %1
  ret void
}

; Function Attrs: nounwind uwtable
define dso_local i32 @php_output_start_user(ptr noundef %0, i64 noundef %1, i32 noundef %2) #0 {
  %4 = alloca i32, align 4
  %5 = alloca ptr, align 8
  %6 = alloca i64, align 8
  %7 = alloca i32, align 4
  %8 = alloca ptr, align 8
  %9 = alloca i32, align 4
  store ptr %0, ptr %5, align 8, !tbaa !10
  store i64 %1, ptr %6, align 8, !tbaa !17
  store i32 %2, ptr %7, align 4, !tbaa !57
  call void @llvm.lifetime.start.p0(i64 8, ptr %8) #15
  %10 = load ptr, ptr %5, align 8, !tbaa !10
  %11 = icmp ne ptr %10, null
  br i1 %11, label %12, label %17

12:                                               ; preds = %3
  %13 = load ptr, ptr %5, align 8, !tbaa !10
  %14 = load i64, ptr %6, align 8, !tbaa !17
  %15 = load i32, ptr %7, align 4, !tbaa !57
  %16 = call ptr @php_output_handler_create_user(ptr noundef %13, i64 noundef %14, i32 noundef %15)
  store ptr %16, ptr %8, align 8, !tbaa !55
  br label %21

17:                                               ; preds = %3
  %18 = load i64, ptr %6, align 8, !tbaa !17
  %19 = load i32, ptr %7, align 4, !tbaa !57
  %20 = call ptr @php_output_handler_create_internal(ptr noundef @php_output_default_handler_name, i64 noundef 22, ptr noundef @php_output_handler_default_func, i64 noundef %18, i32 noundef %19)
  store ptr %20, ptr %8, align 8, !tbaa !55
  br label %21

21:                                               ; preds = %17, %12
  %22 = load ptr, ptr %8, align 8, !tbaa !55
  %23 = call i32 @php_output_handler_start(ptr noundef %22)
  %24 = icmp eq i32 0, %23
  br i1 %24, label %25, label %26

25:                                               ; preds = %21
  store i32 0, ptr %4, align 4
  store i32 1, ptr %9, align 4
  br label %27

26:                                               ; preds = %21
  call void @php_output_handler_free(ptr noundef %8)
  store i32 -1, ptr %4, align 4
  store i32 1, ptr %9, align 4
  br label %27

27:                                               ; preds = %26, %25
  call void @llvm.lifetime.end.p0(i64 8, ptr %8) #15
  %28 = load i32, ptr %4, align 4
  ret i32 %28
}

; Function Attrs: nounwind uwtable
define hidden void @zif_ob_start(ptr noundef %0, ptr noundef %1) #0 {
  %3 = alloca ptr, align 8
  %4 = alloca ptr, align 8
  %5 = alloca ptr, align 8
  %6 = alloca i64, align 8
  %7 = alloca i64, align 8
  %8 = alloca i32, align 4
  store ptr %0, ptr %3, align 8, !tbaa !120
  store ptr %1, ptr %4, align 8, !tbaa !10
  call void @llvm.lifetime.start.p0(i64 8, ptr %5) #15
  store ptr null, ptr %5, align 8, !tbaa !10
  call void @llvm.lifetime.start.p0(i64 8, ptr %6) #15
  store i64 0, ptr %6, align 8, !tbaa !17
  call void @llvm.lifetime.start.p0(i64 8, ptr %7) #15
  store i64 112, ptr %7, align 8, !tbaa !17
  %9 = load ptr, ptr %3, align 8, !tbaa !120
  %10 = getelementptr inbounds nuw %struct._zend_execute_data, ptr %9, i32 0, i32 4
  %11 = getelementptr inbounds nuw %struct._zval_struct, ptr %10, i32 0, i32 2
  %12 = load i32, ptr %11, align 4, !tbaa !12
  %13 = call i32 (i32, ptr, ...) @zend_parse_parameters(i32 noundef %12, ptr noundef @.str.7, ptr noundef %5, ptr noundef %6, ptr noundef %7)
  %14 = icmp eq i32 %13, -1
  br i1 %14, label %15, label %21

15:                                               ; preds = %2
  br label %16

16:                                               ; preds = %15
  %17 = load ptr, ptr getelementptr inbounds nuw (%struct._zend_executor_globals, ptr @executor_globals, i32 0, i32 54), align 8, !tbaa !121
  %18 = icmp ne ptr %17, null
  call void @llvm.assume(i1 %18)
  store i32 1, ptr %8, align 4
  br label %50

19:                                               ; No predecessors!
  br label %20

20:                                               ; preds = %19
  br label %21

21:                                               ; preds = %20, %2
  %22 = load i64, ptr %6, align 8, !tbaa !17
  %23 = icmp slt i64 %22, 0
  br i1 %23, label %24, label %25

24:                                               ; preds = %21
  store i64 0, ptr %6, align 8, !tbaa !17
  br label %25

25:                                               ; preds = %24, %21
  %26 = load ptr, ptr %5, align 8, !tbaa !10
  %27 = load i64, ptr %6, align 8, !tbaa !17
  %28 = load i64, ptr %7, align 8, !tbaa !17
  %29 = trunc i64 %28 to i32
  %30 = call i32 @php_output_start_user(ptr noundef %26, i64 noundef %27, i32 noundef %29)
  %31 = icmp eq i32 %30, -1
  br i1 %31, label %32, label %41

32:                                               ; preds = %25
  call void (ptr, i32, ptr, ...) @php_error_docref(ptr noundef @.str, i32 noundef 8, ptr noundef @.str.8)
  br label %33

33:                                               ; preds = %32
  br label %34

34:                                               ; preds = %33
  %35 = load ptr, ptr %4, align 8, !tbaa !10
  %36 = getelementptr inbounds nuw %struct._zval_struct, ptr %35, i32 0, i32 1
  store i32 2, ptr %36, align 8, !tbaa !12
  br label %37

37:                                               ; preds = %34
  br label %38

38:                                               ; preds = %37
  store i32 1, ptr %8, align 4
  br label %50

39:                                               ; No predecessors!
  br label %40

40:                                               ; preds = %39
  br label %41

41:                                               ; preds = %40, %25
  br label %42

42:                                               ; preds = %41
  br label %43

43:                                               ; preds = %42
  %44 = load ptr, ptr %4, align 8, !tbaa !10
  %45 = getelementptr inbounds nuw %struct._zval_struct, ptr %44, i32 0, i32 1
  store i32 3, ptr %45, align 8, !tbaa !12
  br label %46

46:                                               ; preds = %43
  br label %47

47:                                               ; preds = %46
  store i32 1, ptr %8, align 4
  br label %50

48:                                               ; No predecessors!
  br label %49

49:                                               ; preds = %48
  store i32 0, ptr %8, align 4
  br label %50

50:                                               ; preds = %49, %47, %38, %16
  call void @llvm.lifetime.end.p0(i64 8, ptr %7) #15
  call void @llvm.lifetime.end.p0(i64 8, ptr %6) #15
  call void @llvm.lifetime.end.p0(i64 8, ptr %5) #15
  %51 = load i32, ptr %8, align 4
  switch i32 %51, label %53 [
    i32 0, label %52
    i32 1, label %52
  ]

52:                                               ; preds = %50, %50
  ret void

53:                                               ; preds = %50
  unreachable
}