; Function Attrs: nounwind uwtable
define hidden void @zif_ob_start(ptr noundef readonly captures(none) %0, ptr noundef writeonly captures(none) %1) local_unnamed_addr #0 {
  %3 = alloca ptr, align 8
  %4 = alloca i64, align 8
  %5 = alloca i64, align 8
  call void @llvm.lifetime.start.p0(i64 8, ptr nonnull %3) #22
  store ptr null, ptr %3, align 8, !tbaa !111
  call void @llvm.lifetime.start.p0(i64 8, ptr nonnull %4) #22
  store i64 0, ptr %4, align 8, !tbaa !87
  call void @llvm.lifetime.start.p0(i64 8, ptr nonnull %5) #22
  store i64 112, ptr %5, align 8, !tbaa !87
  %6 = getelementptr inbounds nuw i8, ptr %0, i64 44
  %7 = load i32, ptr %6, align 4, !tbaa !8
  %8 = call i32 (i32, ptr, ...) @zend_parse_parameters(i32 noundef %7, ptr noundef nonnull @.str.7, ptr noundef nonnull %3, ptr noundef nonnull %4, ptr noundef nonnull %5) #22
  %9 = icmp eq i32 %8, -1
  br i1 %9, label %10, label %13

10:                                               ; preds = %2
  %11 = load ptr, ptr getelementptr inbounds nuw (i8, ptr @executor_globals, i64 960), align 8, !tbaa !112
  %12 = icmp ne ptr %11, null
  call void @llvm.assume(i1 %12)
  br label %34

13:                                               ; preds = %2
  %14 = load i64, ptr %4, align 8, !tbaa !87
  %15 = icmp slt i64 %14, 0
  br i1 %15, label %16, label %17

16:                                               ; preds = %13
  store i64 0, ptr %4, align 8, !tbaa !87
  br label %17

17:                                               ; preds = %16, %13
  %18 = phi i64 [ 0, %16 ], [ %14, %13 ]
  %19 = load ptr, ptr %3, align 8, !tbaa !111
  %20 = load i64, ptr %5, align 8, !tbaa !87
  %21 = trunc i64 %20 to i32
  %.not.i = icmp eq ptr %19, null
  br i1 %.not.i, label %24, label %22

22:                                               ; preds = %17
  %23 = call ptr @php_output_handler_create_user(ptr noundef nonnull %19, i64 noundef %18, i32 noundef %21)
  br label %26

24:                                               ; preds = %17
  %25 = call ptr @php_output_handler_create_internal(ptr noundef nonnull @php_output_default_handler_name, i64 noundef 22, ptr noundef nonnull @php_output_handler_default_func, i64 noundef %18, i32 noundef %21)
  br label %26

26:                                               ; preds = %24, %22
  %storemerge.i = phi ptr [ %25, %24 ], [ %23, %22 ]
  %27 = call i32 @php_output_handler_start(ptr noundef %storemerge.i)
  %28 = icmp eq i32 %27, 0
  br i1 %28, label %php_output_start_user.exit, label %29

29:                                               ; preds = %26
  %.not.i.i = icmp eq ptr %storemerge.i, null
  br i1 %.not.i.i, label %31, label %30

30:                                               ; preds = %29
  call void @php_output_handler_dtor(ptr noundef nonnull %storemerge.i)
  call void @_efree(ptr noundef nonnull %storemerge.i) #22
  br label %31

31:                                               ; preds = %29, %30
  call void (ptr, i32, ptr, ...) @php_error_docref(ptr noundef nonnull @.str, i32 noundef 8, ptr noundef nonnull @.str.8) #22
  %32 = getelementptr inbounds nuw i8, ptr %1, i64 8
  store i32 2, ptr %32, align 8, !tbaa !8
  br label %34

php_output_start_user.exit:                       ; preds = %26
  %33 = getelementptr inbounds nuw i8, ptr %1, i64 8
  store i32 3, ptr %33, align 8, !tbaa !8
  br label %34

34:                                               ; preds = %php_output_start_user.exit, %31, %10
  call void @llvm.lifetime.end.p0(i64 8, ptr nonnull %5) #22
  call void @llvm.lifetime.end.p0(i64 8, ptr nonnull %4) #22
  call void @llvm.lifetime.end.p0(i64 8, ptr nonnull %3) #22
  ret void
}